target datalayout = "e-m:e-p270:32:32-p271:32:32-p272:64:64-i64:64-i128:128-f80:128-n8:16:32:64-S128"
target triple = "x86_64-pc-linux-gnu"

%struct.lua_State = type { %struct.GCRef, i8, i8, i8, i8, %struct.MRef, %struct.GCRef, ptr, ptr, %struct.MRef, %struct.MRef, %struct.GCRef, %struct.GCRef, ptr, i32 }
%struct.MRef = type { i64 }
%struct.GCRef = type { i64 }
%union.TValue = type { i64 }

@.str.3 = private unnamed_addr constant [8 x i8] c"loaders\00", align 1
@.str.13 = private unnamed_addr constant [8 x i8] c"_LOADED\00", align 1
@.str.50 = private unnamed_addr constant [43 x i8] c"loop or previous error loading module '%s'\00", align 1
@.str.51 = private unnamed_addr constant [34 x i8] c"'package.loaders' must be a table\00", align 1
@.str.52 = private unnamed_addr constant [1 x i8] zeroinitializer, align 1
@.str.53 = private unnamed_addr constant [25 x i8] c"module '%s' not found:%s\00", align 1

; Function Attrs: nounwind uwtable
define internal i32 @lj_cf_package_require(ptr noundef %0) #0 {
  %2 = alloca i32, align 4
  %3 = alloca ptr, align 8
  %4 = alloca ptr, align 8
  %5 = alloca i32, align 4
  %6 = alloca i32, align 4
  store ptr %0, ptr %3, align 8, !tbaa !4
  call void @llvm.lifetime.start.p0(i64 8, ptr %4) #5
  %7 = load ptr, ptr %3, align 8, !tbaa !4
  %8 = call ptr @luaL_checklstring(ptr noundef %7, i32 noundef 1, ptr noundef null)
  store ptr %8, ptr %4, align 8, !tbaa !14
  call void @llvm.lifetime.start.p0(i64 4, ptr %5) #5
  %9 = load ptr, ptr %3, align 8, !tbaa !4
  call void @lua_settop(ptr noundef %9, i32 noundef 1)
  %10 = load ptr, ptr %3, align 8, !tbaa !4
  call void @lua_getfield(ptr noundef %10, i32 noundef -10000, ptr noundef @.str.13)
  %11 = load ptr, ptr %3, align 8, !tbaa !4
  %12 = load ptr, ptr %4, align 8, !tbaa !14
  call void @lua_getfield(ptr noundef %11, i32 noundef 2, ptr noundef %12)
  %13 = load ptr, ptr %3, align 8, !tbaa !4
  %14 = call i32 @lua_toboolean(ptr noundef %13, i32 noundef -1)
  %15 = icmp ne i32 %14, 0
  br i1 %15, label %16, label %28

16:                                               ; preds = %1
  %17 = load ptr, ptr %3, align 8, !tbaa !4
  %18 = getelementptr inbounds nuw %struct.lua_State, ptr %17, i32 0, i32 8
  %19 = load ptr, ptr %18, align 8, !tbaa !21
  %20 = getelementptr inbounds %union.TValue, ptr %19, i64 -1
  %21 = load i64, ptr %20, align 8, !tbaa !16
  %22 = icmp eq i64 %21, -9223372036854775693
  br i1 %22, label %23, label %27

23:                                               ; preds = %16
  %24 = load ptr, ptr %3, align 8, !tbaa !4
  %25 = load ptr, ptr %4, align 8, !tbaa !14
  %26 = call i32 (ptr, ptr, ...) @luaL_error(ptr noundef %24, ptr noundef @.str.50, ptr noundef %25)
  br label %27

27:                                               ; preds = %23, %16
  store i32 1, ptr %2, align 4
  store i32 1, ptr %6, align 4
  br label %102

28:                                               ; preds = %1
  %29 = load ptr, ptr %3, align 8, !tbaa !4
  call void @lua_getfield(ptr noundef %29, i32 noundef -10001, ptr noundef @.str.3)
  %30 = load ptr, ptr %3, align 8, !tbaa !4
  %31 = call i32 @lua_type(ptr noundef %30, i32 noundef -1)
  %32 = icmp eq i32 %31, 5
  br i1 %32, label %36, label %33

33:                                               ; preds = %28
  %34 = load ptr, ptr %3, align 8, !tbaa !4
  %35 = call i32 (ptr, ptr, ...) @luaL_error(ptr noundef %34, ptr noundef @.str.51)
  br label %36

36:                                               ; preds = %33, %28
  %37 = load ptr, ptr %3, align 8, !tbaa !4
  call void @lua_pushlstring(ptr noundef %37, ptr noundef @.str.52, i64 noundef 0)
  store i32 1, ptr %5, align 4, !tbaa !9
  br label %38

38:                                               ; preds = %68, %36
  %39 = load ptr, ptr %3, align 8, !tbaa !4
  %40 = load i32, ptr %5, align 4, !tbaa !9
  call void @lua_rawgeti(ptr noundef %39, i32 noundef -2, i32 noundef %40)
  %41 = load ptr, ptr %3, align 8, !tbaa !4
  %42 = call i32 @lua_type(ptr noundef %41, i32 noundef -1)
  %43 = icmp eq i32 %42, 0
  br i1 %43, label %44, label %50

44:                                               ; preds = %38
  %45 = load ptr, ptr %3, align 8, !tbaa !4
  %46 = load ptr, ptr %4, align 8, !tbaa !14
  %47 = load ptr, ptr %3, align 8, !tbaa !4
  %48 = call ptr @lua_tolstring(ptr noundef %47, i32 noundef -2, ptr noundef null)
  %49 = call i32 (ptr, ptr, ...) @luaL_error(ptr noundef %45, ptr noundef @.str.53, ptr noundef %46, ptr noundef %48)
  br label %50

50:                                               ; preds = %44, %38
  %51 = load ptr, ptr %3, align 8, !tbaa !4
  %52 = load ptr, ptr %4, align 8, !tbaa !14
  call void @lua_pushstring(ptr noundef %51, ptr noundef %52)
  %53 = load ptr, ptr %3, align 8, !tbaa !4
  call void @lua_call(ptr noundef %53, i32 noundef 1, i32 noundef 1)
  %54 = load ptr, ptr %3, align 8, !tbaa !4
  %55 = call i32 @lua_type(ptr noundef %54, i32 noundef -1)
  %56 = icmp eq i32 %55, 6
  br i1 %56, label %57, label %58

57:                                               ; preds = %50
  br label %71

58:                                               ; preds = %50
  %59 = load ptr, ptr %3, align 8, !tbaa !4
  %60 = call i32 @lua_isstring(ptr noundef %59, i32 noundef -1)
  %61 = icmp ne i32 %60, 0
  br i1 %61, label %62, label %64

62:                                               ; preds = %58
  %63 = load ptr, ptr %3, align 8, !tbaa !4
  call void @lua_concat(ptr noundef %63, i32 noundef 2)
  br label %66

64:                                               ; preds = %58
  %65 = load ptr, ptr %3, align 8, !tbaa !4
  call void @lua_settop(ptr noundef %65, i32 noundef -2)
  br label %66

66:                                               ; preds = %64, %62
  br label %67

67:                                               ; preds = %66
  br label %68

68:                                               ; preds = %67
  %69 = load i32, ptr %5, align 4, !tbaa !9
  %70 = add nsw i32 %69, 1
  store i32 %70, ptr %5, align 4, !tbaa !9
  br label %38

71:                                               ; preds = %57
  %72 = load ptr, ptr %3, align 8, !tbaa !4
  %73 = getelementptr inbounds nuw %struct.lua_State, ptr %72, i32 0, i32 8
  %74 = load ptr, ptr %73, align 8, !tbaa !21
  %75 = getelementptr inbounds nuw %union.TValue, ptr %74, i32 1
  store ptr %75, ptr %73, align 8, !tbaa !21
  store i64 -9223372036854775693, ptr %74, align 8, !tbaa !16
  %76 = load ptr, ptr %3, align 8, !tbaa !4
  %77 = load ptr, ptr %4, align 8, !tbaa !14
  call void @lua_setfield(ptr noundef %76, i32 noundef 2, ptr noundef %77)
  %78 = load ptr, ptr %3, align 8, !tbaa !4
  %79 = load ptr, ptr %4, align 8, !tbaa !14
  call void @lua_pushstring(ptr noundef %78, ptr noundef %79)
  %80 = load ptr, ptr %3, align 8, !tbaa !4
  call void @lua_call(ptr noundef %80, i32 noundef 1, i32 noundef 1)
  %81 = load ptr, ptr %3, align 8, !tbaa !4
  %82 = call i32 @lua_type(ptr noundef %81, i32 noundef -1)
  %83 = icmp eq i32 %82, 0
  br i1 %83, label %87, label %84

84:                                               ; preds = %71
  %85 = load ptr, ptr %3, align 8, !tbaa !4
  %86 = load ptr, ptr %4, align 8, !tbaa !14
  call void @lua_setfield(ptr noundef %85, i32 noundef 2, ptr noundef %86)
  br label %87

87:                                               ; preds = %84, %71
  %88 = load ptr, ptr %3, align 8, !tbaa !4
  %89 = load ptr, ptr %4, align 8, !tbaa !14
  call void @lua_getfield(ptr noundef %88, i32 noundef 2, ptr noundef %89)
  %90 = load ptr, ptr %3, align 8, !tbaa !4
  %91 = getelementptr inbounds nuw %struct.lua_State, ptr %90, i32 0, i32 8
  %92 = load ptr, ptr %91, align 8, !tbaa !21
  %93 = getelementptr inbounds %union.TValue, ptr %92, i64 -1
  %94 = load i64, ptr %93, align 8, !tbaa !16
  %95 = icmp eq i64 %94, -9223372036854775693
  br i1 %95, label %96, label %101

96:                                               ; preds = %87
  %97 = load ptr, ptr %3, align 8, !tbaa !4
  call void @lua_pushboolean(ptr noundef %97, i32 noundef 1)
  %98 = load ptr, ptr %3, align 8, !tbaa !4
  call void @lua_pushvalue(ptr noundef %98, i32 noundef -1)
  %99 = load ptr, ptr %3, align 8, !tbaa !4
  %100 = load ptr, ptr %4, align 8, !tbaa !14
  call void @lua_setfield(ptr noundef %99, i32 noundef 2, ptr noundef %100)
  br label %101

101:                                              ; preds = %96, %87
  store i32 1, ptr %2, align 4
  store i32 1, ptr %6, align 4
  br label %102

102:                                              ; preds = %101, %27
  call void @llvm.lifetime.end.p0(i64 4, ptr %5) #5
  call void @llvm.lifetime.end.p0(i64 8, ptr %4) #5
  %103 = load i32, ptr %2, align 4
  ret i32 %103
}