; Function Attrs: nounwind uwtable
define internal noundef i32 @lj_cf_package_require(ptr noundef %0) #0 {
  %2 = tail call ptr @luaL_checklstring(ptr noundef %0, i32 noundef 1, ptr noundef null) #7
  tail call void @lua_settop(ptr noundef %0, i32 noundef 1) #7
  tail call void @lua_getfield(ptr noundef %0, i32 noundef -10000, ptr noundef nonnull @.str.13) #7
  tail call void @lua_getfield(ptr noundef %0, i32 noundef 2, ptr noundef %2) #7
  %3 = tail call i32 @lua_toboolean(ptr noundef %0, i32 noundef -1) #7
  %.not = icmp eq i32 %3, 0
  br i1 %.not, label %12, label %4

4:                                                ; preds = %1
  %5 = getelementptr inbounds nuw i8, ptr %0, i64 40
  %6 = load ptr, ptr %5, align 8, !tbaa !12
  %7 = getelementptr inbounds i8, ptr %6, i64 -8
  %8 = load i64, ptr %7, align 8, !tbaa !10
  %9 = icmp eq i64 %8, -9223372036854775693
  br i1 %9, label %10, label %46

10:                                               ; preds = %4
  %11 = tail call i32 (ptr, ptr, ...) @luaL_error(ptr noundef nonnull %0, ptr noundef nonnull @.str.50, ptr noundef %2) #7
  br label %46

12:                                               ; preds = %1
  tail call void @lua_getfield(ptr noundef %0, i32 noundef -10001, ptr noundef nonnull @.str.3) #7
  %13 = tail call i32 @lua_type(ptr noundef %0, i32 noundef -1) #7
  %14 = icmp eq i32 %13, 5
  br i1 %14, label %17, label %15

15:                                               ; preds = %12
  %16 = tail call i32 (ptr, ptr, ...) @luaL_error(ptr noundef %0, ptr noundef nonnull @.str.51) #7
  br label %17

17:                                               ; preds = %15, %12
  tail call void @lua_pushlstring(ptr noundef %0, ptr noundef nonnull @.str.52, i64 noundef 0) #7
  br label %18

18:                                               ; preds = %31, %17
  %.0 = phi i32 [ 1, %17 ], [ %32, %31 ]
  tail call void @lua_rawgeti(ptr noundef %0, i32 noundef -2, i32 noundef %.0) #7
  %19 = tail call i32 @lua_type(ptr noundef %0, i32 noundef -1) #7
  %20 = icmp eq i32 %19, 0
  br i1 %20, label %21, label %24

21:                                               ; preds = %18
  %22 = tail call ptr @lua_tolstring(ptr noundef %0, i32 noundef -2, ptr noundef null) #7
  %23 = tail call i32 (ptr, ptr, ...) @luaL_error(ptr noundef %0, ptr noundef nonnull @.str.53, ptr noundef %2, ptr noundef %22) #7
  br label %24

24:                                               ; preds = %21, %18
  tail call void @lua_pushstring(ptr noundef %0, ptr noundef %2) #7
  tail call void @lua_call(ptr noundef %0, i32 noundef 1, i32 noundef 1) #7
  %25 = tail call i32 @lua_type(ptr noundef %0, i32 noundef -1) #7
  %26 = icmp eq i32 %25, 6
  br i1 %26, label %33, label %27

27:                                               ; preds = %24
  %28 = tail call i32 @lua_isstring(ptr noundef %0, i32 noundef -1) #7
  %.not44 = icmp eq i32 %28, 0
  br i1 %.not44, label %30, label %29

29:                                               ; preds = %27
  tail call void @lua_concat(ptr noundef %0, i32 noundef 2) #7
  br label %31

30:                                               ; preds = %27
  tail call void @lua_settop(ptr noundef %0, i32 noundef -2) #7
  br label %31

31:                                               ; preds = %30, %29
  %32 = add nuw nsw i32 %.0, 1
  br label %18

33:                                               ; preds = %24
  %34 = getelementptr inbounds nuw i8, ptr %0, i64 40
  %35 = load ptr, ptr %34, align 8, !tbaa !12
  %36 = getelementptr inbounds nuw i8, ptr %35, i64 8
  store ptr %36, ptr %34, align 8, !tbaa !12
  store i64 -9223372036854775693, ptr %35, align 8, !tbaa !10
  tail call void @lua_setfield(ptr noundef %0, i32 noundef 2, ptr noundef %2) #7
  tail call void @lua_pushstring(ptr noundef %0, ptr noundef %2) #7
  tail call void @lua_call(ptr noundef %0, i32 noundef 1, i32 noundef 1) #7
  %37 = tail call i32 @lua_type(ptr noundef %0, i32 noundef -1) #7
  %38 = icmp eq i32 %37, 0
  br i1 %38, label %40, label %39

39:                                               ; preds = %33
  tail call void @lua_setfield(ptr noundef nonnull %0, i32 noundef 2, ptr noundef %2) #7
  br label %40

40:                                               ; preds = %39, %33
  tail call void @lua_getfield(ptr noundef nonnull %0, i32 noundef 2, ptr noundef %2) #7
  %41 = load ptr, ptr %34, align 8, !tbaa !12
  %42 = getelementptr inbounds i8, ptr %41, i64 -8
  %43 = load i64, ptr %42, align 8, !tbaa !10
  %44 = icmp eq i64 %43, -9223372036854775693
  br i1 %44, label %45, label %46

45:                                               ; preds = %40
  tail call void @lua_pushboolean(ptr noundef nonnull %0, i32 noundef 1) #7
  tail call void @lua_pushvalue(ptr noundef nonnull %0, i32 noundef -1) #7
  tail call void @lua_setfield(ptr noundef nonnull %0, i32 noundef 2, ptr noundef %2) #7
  br label %46

46:                                               ; preds = %40, %45, %4, %10
  ret i32 1
}